target datalayout = "e-m:e-p270:32:32-p271:32:32-p272:64:64-i64:64-i128:128-f80:128-n8:16:32:64-S128"
target triple = "x86_64-pc-linux-gnu"

; Function Attrs: nounwind uwtable
define internal void @exchange_int128s(ptr noundef %0, ptr noundef %1, i64 noundef %2) #0 {
  %4 = alloca ptr, align 8
  %5 = alloca ptr, align 8
  %6 = alloca i64, align 8
  %7 = alloca ptr, align 8
  %8 = alloca ptr, align 8
  %9 = alloca i64, align 8
  %10 = alloca i64, align 8
  store ptr %0, ptr %4, align 8
  store ptr %1, ptr %5, align 8
  store i64 %2, ptr %6, align 8
  %11 = load ptr, ptr %4, align 8
  store ptr %11, ptr %7, align 8
  %12 = load ptr, ptr %5, align 8
  store ptr %12, ptr %8, align 8
  %13 = load i64, ptr %6, align 8
  %14 = udiv i64 %13, 16
  store i64 %14, ptr %6, align 8
  br label %15

15:                                               ; preds = %42, %3
  %16 = load i64, ptr %6, align 8
  %17 = add i64 %16, -1
  store i64 %17, ptr %6, align 8
  %18 = icmp ne i64 %16, 0
  br i1 %18, label %19, label %47

19:                                               ; preds = %15
  %20 = load ptr, ptr %7, align 8
  %21 = getelementptr i64, ptr %20, i64 0
  %22 = load i64, ptr %21, align 8
  store i64 %22, ptr %9, align 8
  %23 = load ptr, ptr %7, align 8
  %24 = getelementptr i64, ptr %23, i64 1
  %25 = load i64, ptr %24, align 8
  store i64 %25, ptr %10, align 8
  %26 = load ptr, ptr %8, align 8
  %27 = getelementptr i64, ptr %26, i64 0
  %28 = load i64, ptr %27, align 8
  %29 = load ptr, ptr %7, align 8
  %30 = getelementptr i64, ptr %29, i64 0
  store i64 %28, ptr %30, align 8
  %31 = load ptr, ptr %8, align 8
  %32 = getelementptr i64, ptr %31, i64 1
  %33 = load i64, ptr %32, align 8
  %34 = load ptr, ptr %7, align 8
  %35 = getelementptr i64, ptr %34, i64 1
  store i64 %33, ptr %35, align 8
  %36 = load i64, ptr %9, align 8
  %37 = load ptr, ptr %8, align 8
  %38 = getelementptr i64, ptr %37, i64 0
  store i64 %36, ptr %38, align 8
  %39 = load i64, ptr %10, align 8
  %40 = load ptr, ptr %8, align 8
  %41 = getelementptr i64, ptr %40, i64 1
  store i64 %39, ptr %41, align 8
  br label %42

42:                                               ; preds = %19
  %43 = load ptr, ptr %7, align 8
  %44 = getelementptr i64, ptr %43, i64 2
  store ptr %44, ptr %7, align 8
  %45 = load ptr, ptr %8, align 8
  %46 = getelementptr i64, ptr %45, i64 2
  store ptr %46, ptr %8, align 8
  br label %15, !llvm.loop !20

47:                                               ; preds = %15
  ret void
}