; Function Attrs: nofree norecurse nosync nounwind memory(readwrite, inaccessiblemem: none) uwtable
define internal void @exchange_int128s(ptr nocapture noundef %0, ptr nocapture noundef %1, i64 noundef %2) unnamed_addr #0 {
  %.not17 = icmp ult i64 %2, 16
  br i1 %.not17, label %._crit_edge, label %.lr.ph.preheader

.lr.ph.preheader:                                 ; preds = %3
  %4 = lshr i64 %2, 4
  br label %.lr.ph

.lr.ph:                                           ; preds = %.lr.ph.preheader, %.lr.ph
  %.020 = phi i64 [ %5, %.lr.ph ], [ %4, %.lr.ph.preheader ]
  %.01519 = phi ptr [ %11, %.lr.ph ], [ %0, %.lr.ph.preheader ]
  %.01618 = phi ptr [ %12, %.lr.ph ], [ %1, %.lr.ph.preheader ]
  %5 = add nsw i64 %.020, -1
  %6 = getelementptr i8, ptr %.01519, i64 8
  %7 = load i64, ptr %.01618, align 8
  %8 = getelementptr i8, ptr %.01618, i64 8
  %9 = load <2 x i64>, ptr %.01519, align 8
  store i64 %7, ptr %.01519, align 8
  %10 = load i64, ptr %8, align 8
  store i64 %10, ptr %6, align 8
  store <2 x i64> %9, ptr %.01618, align 8
  %11 = getelementptr i8, ptr %.01519, i64 16
  %12 = getelementptr i8, ptr %.01618, i64 16
  %.not = icmp eq i64 %5, 0
  br i1 %.not, label %._crit_edge, label %.lr.ph, !llvm.loop !20

._crit_edge:                                      ; preds = %.lr.ph, %3
  ret void
}